target datalayout = "e-m:e-p270:32:32-p271:32:32-p272:64:64-i64:64-i128:128-f80:128-n8:16:32:64-S128"
target triple = "x86_64-pc-linux-gnu"

%struct.cli_crt_t = type { ptr, [64 x i8], [64 x i8], [64 x i8], [20 x i8], [20 x i8], [20 x i8], i32, [64 x i8], ptr, ptr, ptr, i64, i64, i32, i32, i32, i32, i32, ptr, ptr }
%struct.crtmgr = type { ptr, i32 }

@.str.2 = private unnamed_addr constant [109 x i8] c"crtmgr_verify_crt: choosing between codeSign cert and timeSign cert without enough info - errors may result\0A\00", align 1

; Function Attrs: nounwind uwtable
define ptr @crtmgr_verify_crt(ptr noundef %0, ptr noundef %1) #0 {
  %3 = alloca ptr, align 8
  %4 = alloca ptr, align 8
  %5 = alloca ptr, align 8
  %6 = alloca ptr, align 8
  %7 = alloca ptr, align 8
  %8 = alloca i32, align 4
  %9 = alloca i32, align 4
  %10 = alloca i32, align 4
  store ptr %0, ptr %4, align 8
  store ptr %1, ptr %5, align 8
  %11 = load ptr, ptr %4, align 8
  %12 = getelementptr inbounds %struct.crtmgr, ptr %11, i32 0, i32 0
  %13 = load ptr, ptr %12, align 8
  store ptr %13, ptr %6, align 8
  store ptr null, ptr %7, align 8
  store i32 0, ptr %8, align 4
  store i32 0, ptr %9, align 4
  %14 = load ptr, ptr %4, align 8
  %15 = getelementptr inbounds %struct.crtmgr, ptr %14, i32 0, i32 0
  %16 = load ptr, ptr %15, align 8
  store ptr %16, ptr %6, align 8
  br label %17

17:                                               ; preds = %104, %2
  %18 = load ptr, ptr %6, align 8
  %19 = icmp ne ptr %18, null
  br i1 %19, label %20, label %108

20:                                               ; preds = %17
  %21 = load ptr, ptr %6, align 8
  %22 = getelementptr inbounds %struct.cli_crt_t, ptr %21, i32 0, i32 15
  %23 = load i32, ptr %22, align 4
  %24 = icmp ne i32 %23, 0
  br i1 %24, label %25, label %103

25:                                               ; preds = %20
  %26 = load ptr, ptr %6, align 8
  %27 = getelementptr inbounds %struct.cli_crt_t, ptr %26, i32 0, i32 18
  %28 = load i32, ptr %27, align 8
  %29 = icmp ne i32 %28, 0
  br i1 %29, label %103, label %30

30:                                               ; preds = %25
  %31 = load ptr, ptr %6, align 8
  %32 = getelementptr inbounds %struct.cli_crt_t, ptr %31, i32 0, i32 4
  %33 = getelementptr inbounds [20 x i8], ptr %32, i64 0, i64 0
  %34 = load ptr, ptr %5, align 8
  %35 = getelementptr inbounds %struct.cli_crt_t, ptr %34, i32 0, i32 5
  %36 = getelementptr inbounds [20 x i8], ptr %35, i64 0, i64 0
  %37 = call i32 @memcmp(ptr noundef %33, ptr noundef %36, i64 noundef 20) #7
  %38 = icmp ne i32 %37, 0
  br i1 %38, label %103, label %39

39:                                               ; preds = %30
  %40 = load ptr, ptr %6, align 8
  %41 = load ptr, ptr %5, align 8
  %42 = getelementptr inbounds %struct.cli_crt_t, ptr %41, i32 0, i32 11
  %43 = load ptr, ptr %42, align 8
  %44 = load ptr, ptr %5, align 8
  %45 = getelementptr inbounds %struct.cli_crt_t, ptr %44, i32 0, i32 14
  %46 = load i32, ptr %45, align 8
  %47 = load ptr, ptr %5, align 8
  %48 = getelementptr inbounds %struct.cli_crt_t, ptr %47, i32 0, i32 8
  %49 = getelementptr inbounds [64 x i8], ptr %48, i64 0, i64 0
  %50 = call i32 @crtmgr_rsa_verify(ptr noundef %40, ptr noundef %43, i32 noundef %46, ptr noundef %49)
  %51 = icmp ne i32 %50, 0
  br i1 %51, label %103, label %52

52:                                               ; preds = %39
  %53 = load ptr, ptr %5, align 8
  %54 = getelementptr inbounds %struct.cli_crt_t, ptr %53, i32 0, i32 16
  %55 = load i32, ptr %54, align 8
  %56 = load ptr, ptr %6, align 8
  %57 = getelementptr inbounds %struct.cli_crt_t, ptr %56, i32 0, i32 16
  %58 = load i32, ptr %57, align 8
  %59 = and i32 %55, %58
  %60 = load ptr, ptr %5, align 8
  %61 = getelementptr inbounds %struct.cli_crt_t, ptr %60, i32 0, i32 16
  %62 = load i32, ptr %61, align 8
  %63 = icmp eq i32 %59, %62
  br i1 %63, label %64, label %78

64:                                               ; preds = %52
  %65 = load ptr, ptr %5, align 8
  %66 = getelementptr inbounds %struct.cli_crt_t, ptr %65, i32 0, i32 17
  %67 = load i32, ptr %66, align 4
  %68 = load ptr, ptr %6, align 8
  %69 = getelementptr inbounds %struct.cli_crt_t, ptr %68, i32 0, i32 17
  %70 = load i32, ptr %69, align 4
  %71 = and i32 %67, %70
  %72 = load ptr, ptr %5, align 8
  %73 = getelementptr inbounds %struct.cli_crt_t, ptr %72, i32 0, i32 17
  %74 = load i32, ptr %73, align 4
  %75 = icmp eq i32 %71, %74
  br i1 %75, label %76, label %78

76:                                               ; preds = %64
  %77 = load ptr, ptr %6, align 8
  store ptr %77, ptr %3, align 8
  br label %114

78:                                               ; preds = %64, %52
  %79 = load i32, ptr %9, align 4
  %80 = add i32 %79, 1
  store i32 %80, ptr %9, align 4
  %81 = load ptr, ptr %5, align 8
  %82 = getelementptr inbounds %struct.cli_crt_t, ptr %81, i32 0, i32 16
  %83 = load i32, ptr %82, align 8
  %84 = load ptr, ptr %6, align 8
  %85 = getelementptr inbounds %struct.cli_crt_t, ptr %84, i32 0, i32 16
  %86 = load i32, ptr %85, align 8
  %87 = and i32 %83, %86
  %88 = load ptr, ptr %5, align 8
  %89 = getelementptr inbounds %struct.cli_crt_t, ptr %88, i32 0, i32 17
  %90 = load i32, ptr %89, align 4
  %91 = load ptr, ptr %6, align 8
  %92 = getelementptr inbounds %struct.cli_crt_t, ptr %91, i32 0, i32 17
  %93 = load i32, ptr %92, align 4
  %94 = and i32 %90, %93
  %95 = add nsw i32 %87, %94
  store i32 %95, ptr %10, align 4
  %96 = load i32, ptr %10, align 4
  %97 = load i32, ptr %8, align 4
  %98 = icmp sgt i32 %96, %97
  br i1 %98, label %99, label %102

99:                                               ; preds = %78
  %100 = load ptr, ptr %6, align 8
  store ptr %100, ptr %7, align 8
  %101 = load i32, ptr %10, align 4
  store i32 %101, ptr %8, align 4
  br label %102

102:                                              ; preds = %99, %78
  br label %103

103:                                              ; preds = %102, %39, %30, %25, %20
  br label %104

104:                                              ; preds = %103
  %105 = load ptr, ptr %6, align 8
  %106 = getelementptr inbounds %struct.cli_crt_t, ptr %105, i32 0, i32 20
  %107 = load ptr, ptr %106, align 8
  store ptr %107, ptr %6, align 8
  br label %17

108:                                              ; preds = %17
  %109 = load i32, ptr %9, align 4
  %110 = icmp ugt i32 %109, 1
  br i1 %110, label %111, label %112

111:                                              ; preds = %108
  call void (ptr, ...) @cli_warnmsg(ptr noundef @.str.2)
  br label %112

112:                                              ; preds = %111, %108
  %113 = load ptr, ptr %7, align 8
  store ptr %113, ptr %3, align 8
  br label %114

114:                                              ; preds = %112, %76
  %115 = load ptr, ptr %3, align 8
  ret ptr %115
}