; Function Attrs: nounwind uwtable
define ptr @crtmgr_verify_crt(ptr nocapture noundef readonly %0, ptr nocapture noundef readonly %1) local_unnamed_addr #0 {
  %.03545 = load ptr, ptr %0, align 8
  %.not46 = icmp eq ptr %.03545, null
  br i1 %.not46, label %.loopexit, label %.lr.ph

.lr.ph:                                           ; preds = %2
  %3 = getelementptr inbounds i8, ptr %1, i64 220
  %4 = getelementptr inbounds i8, ptr %1, i64 344
  %5 = getelementptr inbounds i8, ptr %1, i64 368
  %6 = getelementptr inbounds i8, ptr %1, i64 264
  %7 = getelementptr inbounds i8, ptr %1, i64 376
  %8 = getelementptr inbounds i8, ptr %1, i64 380
  br label %9

9:                                                ; preds = %.lr.ph, %34
  %.03550 = phi ptr [ %.03545, %.lr.ph ], [ %.035, %34 ]
  %.03049 = phi i32 [ 0, %.lr.ph ], [ %.1, %34 ]
  %.03148 = phi i32 [ 0, %.lr.ph ], [ %.132, %34 ]
  %.03347 = phi ptr [ null, %.lr.ph ], [ %.134, %34 ]
  %10 = getelementptr inbounds i8, ptr %.03550, i64 372
  %11 = load i32, ptr %10, align 4
  %.not37 = icmp eq i32 %11, 0
  br i1 %.not37, label %34, label %12

12:                                               ; preds = %9
  %13 = getelementptr inbounds i8, ptr %.03550, i64 384
  %14 = load i32, ptr %13, align 8
  %.not38 = icmp eq i32 %14, 0
  br i1 %.not38, label %15, label %34

15:                                               ; preds = %12
  %16 = getelementptr inbounds i8, ptr %.03550, i64 200
  %bcmp = tail call i32 @bcmp(ptr noundef nonnull dereferenceable(20) %16, ptr noundef nonnull dereferenceable(20) %3, i64 20)
  %.not39 = icmp eq i32 %bcmp, 0
  br i1 %.not39, label %17, label %34

17:                                               ; preds = %15
  %18 = load ptr, ptr %4, align 8
  %19 = load i32, ptr %5, align 8
  %20 = tail call fastcc i32 @crtmgr_rsa_verify(ptr noundef nonnull %.03550, ptr noundef %18, i32 noundef %19, ptr noundef nonnull %6), !range !4
  %.not40 = icmp eq i32 %20, 0
  br i1 %.not40, label %21, label %34

21:                                               ; preds = %17
  %22 = load i32, ptr %7, align 8
  %23 = getelementptr inbounds i8, ptr %.03550, i64 376
  %24 = load i32, ptr %23, align 8
  %25 = and i32 %24, %22
  %26 = icmp eq i32 %25, %22
  %.pre = load i32, ptr %8, align 4
  %27 = getelementptr inbounds i8, ptr %.03550, i64 380
  %28 = load i32, ptr %27, align 4
  %29 = and i32 %28, %.pre
  %30 = icmp eq i32 %29, %.pre
  %or.cond = select i1 %26, i1 %30, i1 false
  br i1 %or.cond, label %.loopexit, label %._crit_edge53

._crit_edge53:                                    ; preds = %21
  %31 = add i32 %.03049, 1
  %32 = add nsw i32 %29, %25
  %33 = icmp sgt i32 %32, %.03148
  %spec.select = select i1 %33, ptr %.03550, ptr %.03347
  %spec.select41 = tail call i32 @llvm.smax.i32(i32 %32, i32 %.03148)
  br label %34

34:                                               ; preds = %._crit_edge53, %9, %12, %15, %17
  %.134 = phi ptr [ %.03347, %12 ], [ %.03347, %15 ], [ %.03347, %17 ], [ %.03347, %9 ], [ %spec.select, %._crit_edge53 ]
  %.132 = phi i32 [ %.03148, %12 ], [ %.03148, %15 ], [ %.03148, %17 ], [ %.03148, %9 ], [ %spec.select41, %._crit_edge53 ]
  %.1 = phi i32 [ %.03049, %12 ], [ %.03049, %15 ], [ %.03049, %17 ], [ %.03049, %9 ], [ %31, %._crit_edge53 ]
  %35 = getelementptr inbounds i8, ptr %.03550, i64 400
  %.035 = load ptr, ptr %35, align 8
  %.not = icmp eq ptr %.035, null
  br i1 %.not, label %._crit_edge, label %9

._crit_edge:                                      ; preds = %34
  %36 = icmp ugt i32 %.1, 1
  br i1 %36, label %37, label %.loopexit

37:                                               ; preds = %._crit_edge
  tail call void (ptr, ...) @cli_warnmsg(ptr noundef nonnull @.str.2) #10
  br label %.loopexit

.loopexit:                                        ; preds = %21, %2, %._crit_edge, %37
  %.0 = phi ptr [ %.134, %37 ], [ %.134, %._crit_edge ], [ null, %2 ], [ %.03550, %21 ]
  ret ptr %.0
}